target datalayout = "e-m:e-p270:32:32-p271:32:32-p272:64:64-i64:64-i128:128-f80:128-n8:16:32:64-S128"
target triple = "x86_64-pc-linux-gnu"

%struct.varattrib_1b = type { i8, [0 x i8] }
%struct.varattrib_1b_e = type { i8, i8, [0 x i8] }
%struct.anon = type { i32, [0 x i8] }
%struct.toast_compress_header = type { i32, i32 }

@default_toast_compression = external global i32, align 4
@.str = private unnamed_addr constant [30 x i8] c"invalid compression method %c\00", align 1
@.str.1 = private unnamed_addr constant [18 x i8] c"toast_internals.c\00", align 1
@__func__.toast_compress_datum = private unnamed_addr constant [21 x i8] c"toast_compress_datum\00", align 1

; Function Attrs: inlinehint nounwind uwtable
define internal i64 @PointerGetDatum(ptr noundef %0) #2 {
  %2 = alloca ptr, align 8
  store ptr %0, ptr %2, align 8
  %3 = load ptr, ptr %2, align 8
  %4 = ptrtoint ptr %3 to i64
  ret i64 %4
}

; Function Attrs: inlinehint nounwind uwtable
define internal ptr @DatumGetPointer(i64 noundef %0) #2 {
  %2 = alloca i64, align 8
  store i64 %0, ptr %2, align 8
  %3 = load i64, ptr %2, align 8
  %4 = inttoptr i64 %3 to ptr
  ret ptr %4
}

; Function Attrs: nounwind uwtable
define dso_local i64 @toast_compress_datum(i64 noundef %0, i8 noundef signext %1) #0 {
  %3 = alloca i64, align 8
  %4 = alloca i64, align 8
  %5 = alloca i8, align 1
  %6 = alloca ptr, align 8
  %7 = alloca i32, align 4
  %8 = alloca i32, align 4
  %9 = alloca i32, align 4
  store i64 %0, ptr %4, align 8
  store i8 %1, ptr %5, align 1
  call void @llvm.lifetime.start.p0(i64 8, ptr %6) #8
  store ptr null, ptr %6, align 8
  call void @llvm.lifetime.start.p0(i64 4, ptr %7) #8
  call void @llvm.lifetime.start.p0(i64 4, ptr %8) #8
  store i32 2, ptr %8, align 4
  %10 = load i64, ptr %4, align 8
  %11 = call ptr @DatumGetPointer(i64 noundef %10)
  %12 = getelementptr inbounds nuw %struct.varattrib_1b, ptr %11, i32 0, i32 0
  %13 = load i8, ptr %12, align 1
  %14 = zext i8 %13 to i32
  %15 = icmp eq i32 %14, 1
  br i1 %15, label %16, label %47

16:                                               ; preds = %2
  %17 = load i64, ptr %4, align 8
  %18 = call ptr @DatumGetPointer(i64 noundef %17)
  %19 = getelementptr inbounds nuw %struct.varattrib_1b_e, ptr %18, i32 0, i32 1
  %20 = load i8, ptr %19, align 1
  %21 = zext i8 %20 to i32
  %22 = icmp eq i32 %21, 1
  br i1 %22, label %23, label %24

23:                                               ; preds = %16
  br label %43

24:                                               ; preds = %16
  %25 = load i64, ptr %4, align 8
  %26 = call ptr @DatumGetPointer(i64 noundef %25)
  %27 = getelementptr inbounds nuw %struct.varattrib_1b_e, ptr %26, i32 0, i32 1
  %28 = load i8, ptr %27, align 1
  %29 = zext i8 %28 to i32
  %30 = and i32 %29, -2
  %31 = icmp eq i32 %30, 2
  br i1 %31, label %32, label %33

32:                                               ; preds = %24
  br label %41

33:                                               ; preds = %24
  %34 = load i64, ptr %4, align 8
  %35 = call ptr @DatumGetPointer(i64 noundef %34)
  %36 = getelementptr inbounds nuw %struct.varattrib_1b_e, ptr %35, i32 0, i32 1
  %37 = load i8, ptr %36, align 1
  %38 = zext i8 %37 to i32
  %39 = icmp eq i32 %38, 18
  %40 = select i1 %39, i64 16, i64 0
  br label %41

41:                                               ; preds = %33, %32
  %42 = phi i64 [ 8, %32 ], [ %40, %33 ]
  br label %43

43:                                               ; preds = %41, %23
  %44 = phi i64 [ 8, %23 ], [ %42, %41 ]
  %45 = add i64 2, %44
  %46 = sub i64 %45, 2
  br label %76

47:                                               ; preds = %2
  %48 = load i64, ptr %4, align 8
  %49 = call ptr @DatumGetPointer(i64 noundef %48)
  %50 = getelementptr inbounds nuw %struct.varattrib_1b, ptr %49, i32 0, i32 0
  %51 = load i8, ptr %50, align 1
  %52 = zext i8 %51 to i32
  %53 = and i32 %52, 1
  %54 = icmp eq i32 %53, 1
  br i1 %54, label %55, label %65

55:                                               ; preds = %47
  %56 = load i64, ptr %4, align 8
  %57 = call ptr @DatumGetPointer(i64 noundef %56)
  %58 = getelementptr inbounds nuw %struct.varattrib_1b, ptr %57, i32 0, i32 0
  %59 = load i8, ptr %58, align 1
  %60 = zext i8 %59 to i32
  %61 = ashr i32 %60, 1
  %62 = and i32 %61, 127
  %63 = sext i32 %62 to i64
  %64 = sub i64 %63, 1
  br label %74

65:                                               ; preds = %47
  %66 = load i64, ptr %4, align 8
  %67 = call ptr @DatumGetPointer(i64 noundef %66)
  %68 = getelementptr inbounds nuw %struct.anon, ptr %67, i32 0, i32 0
  %69 = load i32, ptr %68, align 4
  %70 = lshr i32 %69, 2
  %71 = and i32 %70, 1073741823
  %72 = sub i32 %71, 4
  %73 = zext i32 %72 to i64
  br label %74

74:                                               ; preds = %65, %55
  %75 = phi i64 [ %64, %55 ], [ %73, %65 ]
  br label %76

76:                                               ; preds = %74, %43
  %77 = phi i64 [ %46, %43 ], [ %75, %74 ]
  %78 = trunc i64 %77 to i32
  store i32 %78, ptr %7, align 4
  %79 = load i8, ptr %5, align 1
  %80 = sext i8 %79 to i32
  %81 = icmp ne i32 %80, 0
  br i1 %81, label %85, label %82

82:                                               ; preds = %76
  %83 = load i32, ptr @default_toast_compression, align 4
  %84 = trunc i32 %83 to i8
  store i8 %84, ptr %5, align 1
  br label %85

85:                                               ; preds = %82, %76
  %86 = load i8, ptr %5, align 1
  %87 = sext i8 %86 to i32
  switch i32 %87, label %96 [
    i32 112, label %88
    i32 108, label %92
  ]

88:                                               ; preds = %85
  %89 = load i64, ptr %4, align 8
  %90 = inttoptr i64 %89 to ptr
  %91 = call ptr @pglz_compress_datum(ptr noundef %90)
  store ptr %91, ptr %6, align 8
  store i32 0, ptr %8, align 4
  br label %109

92:                                               ; preds = %85
  %93 = load i64, ptr %4, align 8
  %94 = inttoptr i64 %93 to ptr
  %95 = call ptr @lz4_compress_datum(ptr noundef %94)
  store ptr %95, ptr %6, align 8
  store i32 1, ptr %8, align 4
  br label %109

96:                                               ; preds = %85
  br label %97

97:                                               ; preds = %96
  br i1 true, label %98, label %100

98:                                               ; preds = %97
  %99 = call zeroext i1 @errstart_cold(i32 noundef 21, ptr noundef null) #9
  br i1 %99, label %102, label %106

100:                                              ; preds = %97
  %101 = call zeroext i1 @errstart(i32 noundef 21, ptr noundef null)
  br i1 %101, label %102, label %106

102:                                              ; preds = %100, %98
  %103 = load i8, ptr %5, align 1
  %104 = sext i8 %103 to i32
  %105 = call i32 (ptr, ...) @errmsg_internal(ptr noundef @.str, i32 noundef %104)
  call void @errfinish(ptr noundef @.str.1, i32 noundef 75, ptr noundef @__func__.toast_compress_datum)
  br label %106

106:                                              ; preds = %102, %100, %98
  unreachable

107:                                              ; No predecessors!
  br label %108

108:                                              ; preds = %107
  br label %109

109:                                              ; preds = %108, %92, %88
  %110 = load ptr, ptr %6, align 8
  %111 = icmp eq ptr %110, null
  br i1 %111, label %112, label %114

112:                                              ; preds = %109
  %113 = call i64 @PointerGetDatum(ptr noundef null)
  store i64 %113, ptr %3, align 8
  store i32 1, ptr %9, align 4
  br label %138

114:                                              ; preds = %109
  %115 = load ptr, ptr %6, align 8
  %116 = getelementptr inbounds nuw %struct.anon, ptr %115, i32 0, i32 0
  %117 = load i32, ptr %116, align 4
  %118 = lshr i32 %117, 2
  %119 = and i32 %118, 1073741823
  %120 = load i32, ptr %7, align 4
  %121 = sub i32 %120, 2
  %122 = icmp ult i32 %119, %121
  br i1 %122, label %123, label %135

123:                                              ; preds = %114
  br label %124

124:                                              ; preds = %123
  %125 = load i32, ptr %7, align 4
  %126 = load i32, ptr %8, align 4
  %127 = shl i32 %126, 30
  %128 = or i32 %125, %127
  %129 = load ptr, ptr %6, align 8
  %130 = getelementptr inbounds nuw %struct.toast_compress_header, ptr %129, i32 0, i32 1
  store i32 %128, ptr %130, align 4
  br label %131

131:                                              ; preds = %124
  br label %132

132:                                              ; preds = %131
  %133 = load ptr, ptr %6, align 8
  %134 = call i64 @PointerGetDatum(ptr noundef %133)
  store i64 %134, ptr %3, align 8
  store i32 1, ptr %9, align 4
  br label %138

135:                                              ; preds = %114
  %136 = load ptr, ptr %6, align 8
  call void @pfree(ptr noundef %136)
  %137 = call i64 @PointerGetDatum(ptr noundef null)
  store i64 %137, ptr %3, align 8
  store i32 1, ptr %9, align 4
  br label %138

138:                                              ; preds = %135, %132, %112
  call void @llvm.lifetime.end.p0(i64 4, ptr %8) #8
  call void @llvm.lifetime.end.p0(i64 4, ptr %7) #8
  call void @llvm.lifetime.end.p0(i64 8, ptr %6) #8
  %139 = load i64, ptr %3, align 8
  ret i64 %139
}