; Function Attrs: nounwind uwtable
define dso_local i64 @toast_compress_datum(i64 noundef %0, i8 noundef signext %1) local_unnamed_addr #0 {
  %3 = inttoptr i64 %0 to ptr
  %4 = load i8, ptr %3, align 1
  %5 = icmp eq i8 %4, 1
  br i1 %5, label %6, label %12

6:                                                ; preds = %2
  %7 = getelementptr inbounds nuw i8, ptr %3, i64 1
  %8 = load i8, ptr %7, align 1
  %.off = add i8 %8, -1
  %switch = icmp ult i8 %.off, 3
  br i1 %switch, label %22, label %9

9:                                                ; preds = %6
  %10 = icmp eq i8 %8, 18
  %11 = select i1 %10, i32 16, i32 0
  br label %22

12:                                               ; preds = %2
  %13 = and i8 %4, 1
  %.not = icmp eq i8 %13, 0
  br i1 %.not, label %18, label %14

14:                                               ; preds = %12
  %15 = lshr i8 %4, 1
  %16 = zext nneg i8 %15 to i32
  %17 = add nsw i32 %16, -1
  br label %22

18:                                               ; preds = %12
  %19 = load i32, ptr %3, align 4
  %20 = lshr i32 %19, 2
  %21 = add nsw i32 %20, -4
  br label %22

22:                                               ; preds = %6, %9, %14, %18
  %23 = phi i32 [ %17, %14 ], [ %21, %18 ], [ %11, %9 ], [ 8, %6 ]
  %.not23 = icmp eq i8 %1, 0
  %24 = load i32, ptr @default_toast_compression, align 4
  %25 = trunc i32 %24 to i8
  %.022 = select i1 %.not23, i8 %25, i8 %1
  switch i8 %.022, label %30 [
    i8 112, label %26
    i8 108, label %28
  ]

26:                                               ; preds = %22
  %27 = tail call ptr @pglz_compress_datum(ptr noundef nonnull %3) #7
  br label %34

28:                                               ; preds = %22
  %29 = tail call ptr @lz4_compress_datum(ptr noundef nonnull %3) #7
  br label %34

30:                                               ; preds = %22
  %31 = sext i8 %.022 to i32
  %32 = tail call zeroext i1 @errstart_cold(i32 noundef 21, ptr noundef null) #8
  tail call void @llvm.assume(i1 %32)
  %33 = tail call i32 (ptr, ...) @errmsg_internal(ptr noundef nonnull @.str, i32 noundef %31) #7
  tail call void @errfinish(ptr noundef nonnull @.str.1, i32 noundef 75, ptr noundef nonnull @__func__.toast_compress_datum) #7
  unreachable

34:                                               ; preds = %28, %26
  %.021 = phi ptr [ %29, %28 ], [ %27, %26 ]
  %.0 = phi i32 [ 1073741824, %28 ], [ 0, %26 ]
  %35 = icmp eq ptr %.021, null
  br i1 %35, label %46, label %36

36:                                               ; preds = %34
  %37 = load i32, ptr %.021, align 4
  %38 = lshr i32 %37, 2
  %39 = add nsw i32 %23, -2
  %40 = icmp ult i32 %38, %39
  br i1 %40, label %41, label %45

41:                                               ; preds = %36
  %42 = or i32 %.0, %23
  %43 = getelementptr inbounds nuw i8, ptr %.021, i64 4
  store i32 %42, ptr %43, align 4
  %44 = ptrtoint ptr %.021 to i64
  br label %46

45:                                               ; preds = %36
  tail call void @pfree(ptr noundef nonnull %.021) #7
  br label %46

46:                                               ; preds = %34, %45, %41
  %.020 = phi i64 [ %44, %41 ], [ 0, %45 ], [ 0, %34 ]
  ret i64 %.020
}